; Function Attrs: nofree nosync nounwind memory(readwrite, inaccessiblemem: none) uwtable
define void @Ivy_ObjUpdateLevelR_rec(ptr noundef readonly captures(none) %0, ptr noundef readonly captures(none) %1, i32 noundef %2) local_unnamed_addr #5 {
  %.val3039 = load i32, ptr %1, align 8
  %.not40 = icmp eq i32 %.val3039, 0
  br i1 %.not40, label %._crit_edge, label %.lr.ph

.lr.ph:                                           ; preds = %3
  %4 = getelementptr inbounds nuw i8, ptr %0, i64 184
  br label %5

5:                                                ; preds = %.lr.ph, %tailrecurse
  %.tr3842 = phi i32 [ %2, %.lr.ph ], [ %19, %tailrecurse ]
  %.tr3741 = phi ptr [ %1, %.lr.ph ], [ %26, %tailrecurse ]
  %6 = getelementptr i8, ptr %.tr3741, i64 8
  %.val29 = load i32, ptr %6, align 8
  %7 = and i32 %.val29, 15
  switch i32 %7, label %8 [
    i32 4, label %._crit_edge
    i32 1, label %._crit_edge
  ]

8:                                                ; preds = %5
  %9 = getelementptr i8, ptr %.tr3741, i64 16
  %.val = load ptr, ptr %9, align 8
  %10 = ptrtoint ptr %.val to i64
  %11 = and i64 %10, -2
  %12 = inttoptr i64 %11 to ptr
  %13 = load ptr, ptr %4, align 8
  %14 = load i32, ptr %12, align 8
  %15 = getelementptr i8, ptr %13, i64 8
  %.val28 = load ptr, ptr %15, align 8
  %16 = sext i32 %14 to i64
  %17 = getelementptr inbounds i32, ptr %.val28, i64 %16
  %18 = load i32, ptr %17, align 4
  %19 = add nsw i32 %.tr3842, -1
  %.not23 = icmp slt i32 %18, %.tr3842
  br i1 %.not23, label %21, label %20

20:                                               ; preds = %8
  store i32 %19, ptr %17, align 4
  tail call void @Ivy_ObjUpdateLevelR_rec(ptr noundef nonnull %0, ptr noundef nonnull %12, i32 noundef %19)
  %.val31.pre = load i32, ptr %6, align 8
  %.pre = and i32 %.val31.pre, 15
  br label %21

21:                                               ; preds = %20, %8
  %.pre-phi = phi i32 [ %.pre, %20 ], [ %7, %8 ]
  %.not36 = icmp eq i32 %.pre-phi, 7
  br i1 %.not36, label %._crit_edge, label %22

22:                                               ; preds = %21
  %23 = getelementptr i8, ptr %.tr3741, i64 24
  %.val26 = load ptr, ptr %23, align 8
  %24 = ptrtoint ptr %.val26 to i64
  %25 = and i64 %24, -2
  %26 = inttoptr i64 %25 to ptr
  %27 = load ptr, ptr %4, align 8
  %28 = load i32, ptr %26, align 8
  %29 = getelementptr i8, ptr %27, i64 8
  %.val27 = load ptr, ptr %29, align 8
  %30 = sext i32 %28 to i64
  %31 = getelementptr inbounds i32, ptr %.val27, i64 %30
  %32 = load i32, ptr %31, align 4
  %.not25 = icmp slt i32 %32, %.tr3842
  br i1 %.not25, label %._crit_edge, label %tailrecurse

tailrecurse:                                      ; preds = %22
  store i32 %19, ptr %31, align 4
  %.val30 = load i32, ptr %26, align 8
  %.not = icmp eq i32 %.val30, 0
  br i1 %.not, label %._crit_edge, label %5

._crit_edge:                                      ; preds = %22, %tailrecurse, %21, %5, %5, %3
  ret void
}